#include <math.h>
#include <stdio.h>
#include <stdlib.h>
#include <string.h>

int main()
{
    int n,time,i,j,len1,len2;
    char a[200],b[200];
    scanf("%d",&n);
    for(time=0;time<n;time++)
    {
        scanf("%s",a);
        scanf("%s",b);
        len1=strlen(a);
        len2=strlen(b);
        j=0;
        for(i=0;i<len1;i++)
        {
            if(i<len2)
                a[len1-i-1]-=(b[len2-i-1]-'0');
            if(a[len1-i-1]<'0')
                a[len1-i-2]-=1;
        }
        j=0;
        for(i=0;a[i]!=0;i++)
        {
            if(a[i]!='0')j=1;
            if(j)printf("%c",(a[i]>='0'?a[i]:a[i]+10));
        }
        printf("\n");
    }
    return 0;
}
