; ModuleID = '32/1396.c'
source_filename = "32/1396.c"
target datalayout = "e-m:e-p270:32:32-p271:32:32-p272:64:64-i64:64-f80:128-n8:16:32:64-S128"
target triple = "x86_64-pc-linux-gnu"

@.str = private unnamed_addr constant [3 x i8] c"%d\00", align 1
@.str.1 = private unnamed_addr constant [3 x i8] c"%s\00", align 1
@.str.2 = private unnamed_addr constant [3 x i8] c"%c\00", align 1
@.str.3 = private unnamed_addr constant [2 x i8] c"\0A\00", align 1

; Function Attrs: noinline nounwind uwtable
define dso_local i32 @main() #0 {
  %1 = alloca i32, align 4
  %2 = alloca i32, align 4
  %3 = alloca i32, align 4
  %4 = alloca i32, align 4
  %5 = alloca i32, align 4
  %6 = alloca i32, align 4
  %7 = alloca i32, align 4
  %8 = alloca [200 x i8], align 16
  %9 = alloca [200 x i8], align 16
  store i32 0, i32* %1, align 4
  %10 = call i32 (i8*, ...) @__isoc99_scanf(i8* getelementptr inbounds ([3 x i8], [3 x i8]* @.str, i64 0, i64 0), i32* %2)
  store i32 0, i32* %3, align 4
  br label %11

11:                                               ; preds = %127, %0
  %12 = load i32, i32* %3, align 4
  %13 = load i32, i32* %2, align 4
  %14 = icmp slt i32 %12, %13
  br i1 %14, label %15, label %130

15:                                               ; preds = %11
  %16 = getelementptr inbounds [200 x i8], [200 x i8]* %8, i64 0, i64 0
  %17 = call i32 (i8*, ...) @__isoc99_scanf(i8* getelementptr inbounds ([3 x i8], [3 x i8]* @.str.1, i64 0, i64 0), i8* %16)
  %18 = getelementptr inbounds [200 x i8], [200 x i8]* %9, i64 0, i64 0
  %19 = call i32 (i8*, ...) @__isoc99_scanf(i8* getelementptr inbounds ([3 x i8], [3 x i8]* @.str.1, i64 0, i64 0), i8* %18)
  %20 = getelementptr inbounds [200 x i8], [200 x i8]* %8, i64 0, i64 0
  %21 = call i64 @strlen(i8* %20) #3
  %22 = trunc i64 %21 to i32
  store i32 %22, i32* %6, align 4
  %23 = getelementptr inbounds [200 x i8], [200 x i8]* %9, i64 0, i64 0
  %24 = call i64 @strlen(i8* %23) #3
  %25 = trunc i64 %24 to i32
  store i32 %25, i32* %7, align 4
  store i32 0, i32* %5, align 4
  store i32 0, i32* %4, align 4
  br label %26

26:                                               ; preds = %76, %15
  %27 = load i32, i32* %4, align 4
  %28 = load i32, i32* %6, align 4
  %29 = icmp slt i32 %27, %28
  br i1 %29, label %30, label %79

30:                                               ; preds = %26
  %31 = load i32, i32* %4, align 4
  %32 = load i32, i32* %7, align 4
  %33 = icmp slt i32 %31, %32
  br i1 %33, label %34, label %54

34:                                               ; preds = %30
  %35 = load i32, i32* %7, align 4
  %36 = load i32, i32* %4, align 4
  %37 = sub nsw i32 %35, %36
  %38 = sub nsw i32 %37, 1
  %39 = sext i32 %38 to i64
  %40 = getelementptr inbounds [200 x i8], [200 x i8]* %9, i64 0, i64 %39
  %41 = load i8, i8* %40, align 1
  %42 = sext i8 %41 to i32
  %43 = sub nsw i32 %42, 48
  %44 = load i32, i32* %6, align 4
  %45 = load i32, i32* %4, align 4
  %46 = sub nsw i32 %44, %45
  %47 = sub nsw i32 %46, 1
  %48 = sext i32 %47 to i64
  %49 = getelementptr inbounds [200 x i8], [200 x i8]* %8, i64 0, i64 %48
  %50 = load i8, i8* %49, align 1
  %51 = sext i8 %50 to i32
  %52 = sub nsw i32 %51, %43
  %53 = trunc i32 %52 to i8
  store i8 %53, i8* %49, align 1
  br label %54

54:                                               ; preds = %34, %30
  %55 = load i32, i32* %6, align 4
  %56 = load i32, i32* %4, align 4
  %57 = sub nsw i32 %55, %56
  %58 = sub nsw i32 %57, 1
  %59 = sext i32 %58 to i64
  %60 = getelementptr inbounds [200 x i8], [200 x i8]* %8, i64 0, i64 %59
  %61 = load i8, i8* %60, align 1
  %62 = sext i8 %61 to i32
  %63 = icmp slt i32 %62, 48
  br i1 %63, label %64, label %75

64:                                               ; preds = %54
  %65 = load i32, i32* %6, align 4
  %66 = load i32, i32* %4, align 4
  %67 = sub nsw i32 %65, %66
  %68 = sub nsw i32 %67, 2
  %69 = sext i32 %68 to i64
  %70 = getelementptr inbounds [200 x i8], [200 x i8]* %8, i64 0, i64 %69
  %71 = load i8, i8* %70, align 1
  %72 = sext i8 %71 to i32
  %73 = sub nsw i32 %72, 1
  %74 = trunc i32 %73 to i8
  store i8 %74, i8* %70, align 1
  br label %75

75:                                               ; preds = %64, %54
  br label %76

76:                                               ; preds = %75
  %77 = load i32, i32* %4, align 4
  %78 = add nsw i32 %77, 1
  store i32 %78, i32* %4, align 4
  br label %26

79:                                               ; preds = %26
  store i32 0, i32* %5, align 4
  store i32 0, i32* %4, align 4
  br label %80

80:                                               ; preds = %122, %79
  %81 = load i32, i32* %4, align 4
  %82 = sext i32 %81 to i64
  %83 = getelementptr inbounds [200 x i8], [200 x i8]* %8, i64 0, i64 %82
  %84 = load i8, i8* %83, align 1
  %85 = sext i8 %84 to i32
  %86 = icmp ne i32 %85, 0
  br i1 %86, label %87, label %125

87:                                               ; preds = %80
  %88 = load i32, i32* %4, align 4
  %89 = sext i32 %88 to i64
  %90 = getelementptr inbounds [200 x i8], [200 x i8]* %8, i64 0, i64 %89
  %91 = load i8, i8* %90, align 1
  %92 = sext i8 %91 to i32
  %93 = icmp ne i32 %92, 48
  br i1 %93, label %94, label %95

94:                                               ; preds = %87
  store i32 1, i32* %5, align 4
  br label %95

95:                                               ; preds = %94, %87
  %96 = load i32, i32* %5, align 4
  %97 = icmp ne i32 %96, 0
  br i1 %97, label %98, label %121

98:                                               ; preds = %95
  %99 = load i32, i32* %4, align 4
  %100 = sext i32 %99 to i64
  %101 = getelementptr inbounds [200 x i8], [200 x i8]* %8, i64 0, i64 %100
  %102 = load i8, i8* %101, align 1
  %103 = sext i8 %102 to i32
  %104 = icmp sge i32 %103, 48
  br i1 %104, label %105, label %111

105:                                              ; preds = %98
  %106 = load i32, i32* %4, align 4
  %107 = sext i32 %106 to i64
  %108 = getelementptr inbounds [200 x i8], [200 x i8]* %8, i64 0, i64 %107
  %109 = load i8, i8* %108, align 1
  %110 = sext i8 %109 to i32
  br label %118

111:                                              ; preds = %98
  %112 = load i32, i32* %4, align 4
  %113 = sext i32 %112 to i64
  %114 = getelementptr inbounds [200 x i8], [200 x i8]* %8, i64 0, i64 %113
  %115 = load i8, i8* %114, align 1
  %116 = sext i8 %115 to i32
  %117 = add nsw i32 %116, 10
  br label %118

118:                                              ; preds = %111, %105
  %119 = phi i32 [ %110, %105 ], [ %117, %111 ]
  %120 = call i32 (i8*, ...) @printf(i8* getelementptr inbounds ([3 x i8], [3 x i8]* @.str.2, i64 0, i64 0), i32 %119)
  br label %121

121:                                              ; preds = %118, %95
  br label %122

122:                                              ; preds = %121
  %123 = load i32, i32* %4, align 4
  %124 = add nsw i32 %123, 1
  store i32 %124, i32* %4, align 4
  br label %80

125:                                              ; preds = %80
  %126 = call i32 (i8*, ...) @printf(i8* getelementptr inbounds ([2 x i8], [2 x i8]* @.str.3, i64 0, i64 0))
  br label %127

127:                                              ; preds = %125
  %128 = load i32, i32* %3, align 4
  %129 = add nsw i32 %128, 1
  store i32 %129, i32* %3, align 4
  br label %11

130:                                              ; preds = %11
  ret i32 0
}

declare dso_local i32 @__isoc99_scanf(i8*, ...) #1

; Function Attrs: nounwind readonly
declare dso_local i64 @strlen(i8*) #2

declare dso_local i32 @printf(i8*, ...) #1


!llvm.module.flags = !{!0}
!llvm.ident = !{!1}

!0 = !{i32 1, !"wchar_size", i32 4}
!1 = !{!"clang version 10.0.0-4ubuntu1 "}
